target datalayout = "e-m:e-p270:32:32-p271:32:32-p272:64:64-i64:64-i128:128-f80:128-n8:16:32:64-S128"
target triple = "x86_64-pc-linux-gnu"

%struct.DdManager = type { %struct.DdNode, ptr, ptr, ptr, ptr, ptr, ptr, ptr, i32, i32, double, double, double, i32, i32, i32, i32, i32, i32, ptr, ptr, %struct.DdSubtable, i32, i32, i32, i32, i32, i32, i32, double, i32, i32, i32, ptr, i64, double, i32, ptr, ptr, ptr, ptr, ptr, ptr, ptr, i32, ptr, ptr, ptr, ptr, ptr, ptr, i32, i32, i32, double, i32, i32, i32, i32, double, double, i32, i32, i32, i32, i32, i32, i32, i32, i32, ptr, ptr, i32, i32, i32, i32, i32, i32, ptr, ptr, ptr, ptr, ptr, ptr, ptr, ptr, i32, i64, i64, i64, i32, i64, i64, double, double, double, double, double, double, i32, ptr, ptr, i64 }
%struct.DdNode = type { i32, i32, ptr, %union.anon, i64 }
%union.anon = type { %struct.DdChildren }
%struct.DdChildren = type { ptr, ptr }
%struct.DdSubtable = type { ptr, i32, i32, i32, i32, i32, i32, i32, i32, i32, i32, i32 }

; Function Attrs: nounwind uwtable
define ptr @Cudd_addNor(ptr noundef %0, ptr noundef %1, ptr noundef %2) #0 {
  %4 = alloca ptr, align 8
  %5 = alloca ptr, align 8
  %6 = alloca ptr, align 8
  %7 = alloca ptr, align 8
  %8 = alloca ptr, align 8
  %9 = alloca ptr, align 8
  %10 = alloca i32, align 4
  store ptr %0, ptr %5, align 8, !tbaa !3
  store ptr %1, ptr %6, align 8, !tbaa !35
  store ptr %2, ptr %7, align 8, !tbaa !35
  call void @llvm.lifetime.start.p0(i64 8, ptr %8) #4
  call void @llvm.lifetime.start.p0(i64 8, ptr %9) #4
  %11 = load ptr, ptr %6, align 8, !tbaa !35
  %12 = load ptr, ptr %11, align 8, !tbaa !9
  store ptr %12, ptr %8, align 8, !tbaa !9
  %13 = load ptr, ptr %7, align 8, !tbaa !35
  %14 = load ptr, ptr %13, align 8, !tbaa !9
  store ptr %14, ptr %9, align 8, !tbaa !9
  %15 = load ptr, ptr %8, align 8, !tbaa !9
  %16 = load ptr, ptr %5, align 8, !tbaa !3
  %17 = getelementptr inbounds nuw %struct.DdManager, ptr %16, i32 0, i32 1
  %18 = load ptr, ptr %17, align 8, !tbaa !38
  %19 = icmp eq ptr %15, %18
  br i1 %19, label %26, label %20

20:                                               ; preds = %3
  %21 = load ptr, ptr %9, align 8, !tbaa !9
  %22 = load ptr, ptr %5, align 8, !tbaa !3
  %23 = getelementptr inbounds nuw %struct.DdManager, ptr %22, i32 0, i32 1
  %24 = load ptr, ptr %23, align 8, !tbaa !38
  %25 = icmp eq ptr %21, %24
  br i1 %25, label %26, label %30

26:                                               ; preds = %20, %3
  %27 = load ptr, ptr %5, align 8, !tbaa !3
  %28 = getelementptr inbounds nuw %struct.DdManager, ptr %27, i32 0, i32 2
  %29 = load ptr, ptr %28, align 8, !tbaa !36
  store ptr %29, ptr %4, align 8
  store i32 1, ptr %10, align 4
  br label %54

30:                                               ; preds = %20
  %31 = load ptr, ptr %8, align 8, !tbaa !9
  %32 = getelementptr inbounds nuw %struct.DdNode, ptr %31, i32 0, i32 0
  %33 = load i32, ptr %32, align 8, !tbaa !30
  %34 = icmp eq i32 %33, 2147483647
  br i1 %34, label %35, label %44

35:                                               ; preds = %30
  %36 = load ptr, ptr %9, align 8, !tbaa !9
  %37 = getelementptr inbounds nuw %struct.DdNode, ptr %36, i32 0, i32 0
  %38 = load i32, ptr %37, align 8, !tbaa !30
  %39 = icmp eq i32 %38, 2147483647
  br i1 %39, label %40, label %44

40:                                               ; preds = %35
  %41 = load ptr, ptr %5, align 8, !tbaa !3
  %42 = getelementptr inbounds nuw %struct.DdManager, ptr %41, i32 0, i32 1
  %43 = load ptr, ptr %42, align 8, !tbaa !38
  store ptr %43, ptr %4, align 8
  store i32 1, ptr %10, align 4
  br label %54

44:                                               ; preds = %35, %30
  %45 = load ptr, ptr %8, align 8, !tbaa !9
  %46 = load ptr, ptr %9, align 8, !tbaa !9
  %47 = icmp ugt ptr %45, %46
  br i1 %47, label %48, label %53

48:                                               ; preds = %44
  %49 = load ptr, ptr %9, align 8, !tbaa !9
  %50 = load ptr, ptr %6, align 8, !tbaa !35
  store ptr %49, ptr %50, align 8, !tbaa !9
  %51 = load ptr, ptr %8, align 8, !tbaa !9
  %52 = load ptr, ptr %7, align 8, !tbaa !35
  store ptr %51, ptr %52, align 8, !tbaa !9
  br label %53

53:                                               ; preds = %48, %44
  store ptr null, ptr %4, align 8
  store i32 1, ptr %10, align 4
  br label %54

54:                                               ; preds = %53, %40, %26
  call void @llvm.lifetime.end.p0(i64 8, ptr %9) #4
  call void @llvm.lifetime.end.p0(i64 8, ptr %8) #4
  %55 = load ptr, ptr %4, align 8
  ret ptr %55
}